target datalayout = "e-m:e-p270:32:32-p271:32:32-p272:64:64-i64:64-i128:128-f80:128-n8:16:32:64-S128"
target triple = "x86_64-pc-linux-gnu"

%struct.archive_write = type { %struct.archive, i32, i64, i64, ptr, i64, ptr, ptr, ptr, ptr, ptr, i32, i32, ptr, ptr, ptr, ptr, ptr, ptr, ptr, ptr, ptr, ptr, ptr, ptr, ptr, ptr }
%struct.archive = type { i32, i32, ptr, i32, ptr, i32, i32, ptr, %struct.archive_string, ptr, i32, i32, ptr, ptr, i64, i64, i64, i8, i64 }
%struct.archive_string = type { ptr, i64, i64 }
%struct.archive_write_filter = type { i64, ptr, ptr, ptr, ptr, ptr, ptr, ptr, ptr, ptr, ptr, i32, i32, i32, i32 }

; Function Attrs: nounwind uwtable
define dso_local void @__archive_write_filters_free(ptr noundef %0) #0 {
  %2 = alloca ptr, align 8
  %3 = alloca ptr, align 8
  %4 = alloca i32, align 4
  %5 = alloca i32, align 4
  %6 = alloca ptr, align 8
  store ptr %0, ptr %2, align 8, !tbaa !26
  call void @llvm.lifetime.start.p0(i64 8, ptr %3) #9
  %7 = load ptr, ptr %2, align 8, !tbaa !26
  store ptr %7, ptr %3, align 8, !tbaa !4
  call void @llvm.lifetime.start.p0(i64 4, ptr %4) #9
  store i32 0, ptr %4, align 4, !tbaa !28
  call void @llvm.lifetime.start.p0(i64 4, ptr %5) #9
  br label %8

8:                                                ; preds = %41, %1
  %9 = load ptr, ptr %3, align 8, !tbaa !4
  %10 = getelementptr inbounds nuw %struct.archive_write, ptr %9, i32 0, i32 13
  %11 = load ptr, ptr %10, align 8, !tbaa !37
  %12 = icmp ne ptr %11, null
  br i1 %12, label %13, label %48

13:                                               ; preds = %8
  call void @llvm.lifetime.start.p0(i64 8, ptr %6) #9
  %14 = load ptr, ptr %3, align 8, !tbaa !4
  %15 = getelementptr inbounds nuw %struct.archive_write, ptr %14, i32 0, i32 13
  %16 = load ptr, ptr %15, align 8, !tbaa !37
  %17 = getelementptr inbounds nuw %struct.archive_write_filter, ptr %16, i32 0, i32 2
  %18 = load ptr, ptr %17, align 8, !tbaa !39
  store ptr %18, ptr %6, align 8, !tbaa !33
  %19 = load ptr, ptr %3, align 8, !tbaa !4
  %20 = getelementptr inbounds nuw %struct.archive_write, ptr %19, i32 0, i32 13
  %21 = load ptr, ptr %20, align 8, !tbaa !37
  %22 = getelementptr inbounds nuw %struct.archive_write_filter, ptr %21, i32 0, i32 8
  %23 = load ptr, ptr %22, align 8, !tbaa !52
  %24 = icmp ne ptr %23, null
  br i1 %24, label %25, label %41

25:                                               ; preds = %13
  %26 = load ptr, ptr %3, align 8, !tbaa !4
  %27 = getelementptr inbounds nuw %struct.archive_write, ptr %26, i32 0, i32 13
  %28 = load ptr, ptr %27, align 8, !tbaa !37
  %29 = getelementptr inbounds nuw %struct.archive_write_filter, ptr %28, i32 0, i32 8
  %30 = load ptr, ptr %29, align 8, !tbaa !52
  %31 = load ptr, ptr %3, align 8, !tbaa !4
  %32 = getelementptr inbounds nuw %struct.archive_write, ptr %31, i32 0, i32 13
  %33 = load ptr, ptr %32, align 8, !tbaa !37
  %34 = call i32 %30(ptr noundef %33)
  store i32 %34, ptr %5, align 4, !tbaa !28
  %35 = load i32, ptr %4, align 4, !tbaa !28
  %36 = load i32, ptr %5, align 4, !tbaa !28
  %37 = icmp sgt i32 %35, %36
  br i1 %37, label %38, label %40

38:                                               ; preds = %25
  %39 = load i32, ptr %5, align 4, !tbaa !28
  store i32 %39, ptr %4, align 4, !tbaa !28
  br label %40

40:                                               ; preds = %38, %25
  br label %41

41:                                               ; preds = %40, %13
  %42 = load ptr, ptr %3, align 8, !tbaa !4
  %43 = getelementptr inbounds nuw %struct.archive_write, ptr %42, i32 0, i32 13
  %44 = load ptr, ptr %43, align 8, !tbaa !37
  call void @free(ptr noundef %44) #9
  %45 = load ptr, ptr %6, align 8, !tbaa !33
  %46 = load ptr, ptr %3, align 8, !tbaa !4
  %47 = getelementptr inbounds nuw %struct.archive_write, ptr %46, i32 0, i32 13
  store ptr %45, ptr %47, align 8, !tbaa !37
  call void @llvm.lifetime.end.p0(i64 8, ptr %6) #9
  br label %8, !llvm.loop !70

48:                                               ; preds = %8
  %49 = load ptr, ptr %3, align 8, !tbaa !4
  %50 = getelementptr inbounds nuw %struct.archive_write, ptr %49, i32 0, i32 14
  store ptr null, ptr %50, align 8, !tbaa !38
  call void @llvm.lifetime.end.p0(i64 4, ptr %5) #9
  call void @llvm.lifetime.end.p0(i64 4, ptr %4) #9
  call void @llvm.lifetime.end.p0(i64 8, ptr %3) #9
  ret void
}