; Function Attrs: nounwind uwtable
define dso_local void @__archive_write_filters_free(ptr noundef captures(none) %0) local_unnamed_addr #3 {
  %2 = getelementptr inbounds nuw i8, ptr %0, i64 232
  %3 = load ptr, ptr %2, align 8, !tbaa !30
  %.not16 = icmp eq ptr %3, null
  br i1 %.not16, label %._crit_edge, label %.lr.ph

.lr.ph:                                           ; preds = %1, %11
  %4 = phi ptr [ %6, %11 ], [ %3, %1 ]
  %5 = getelementptr inbounds nuw i8, ptr %4, i64 16
  %6 = load ptr, ptr %5, align 8, !tbaa !32
  %7 = getelementptr inbounds nuw i8, ptr %4, i64 64
  %8 = load ptr, ptr %7, align 8, !tbaa !42
  %.not15 = icmp eq ptr %8, null
  br i1 %.not15, label %11, label %9

9:                                                ; preds = %.lr.ph
  %10 = tail call i32 %8(ptr noundef nonnull %4) #13
  %.pre = load ptr, ptr %2, align 8, !tbaa !30
  br label %11

11:                                               ; preds = %9, %.lr.ph
  %12 = phi ptr [ %4, %.lr.ph ], [ %.pre, %9 ]
  tail call void @free(ptr noundef %12) #13
  store ptr %6, ptr %2, align 8, !tbaa !30
  %.not = icmp eq ptr %6, null
  br i1 %.not, label %._crit_edge, label %.lr.ph, !llvm.loop !46

._crit_edge:                                      ; preds = %11, %1
  %13 = getelementptr inbounds nuw i8, ptr %0, i64 240
  store ptr null, ptr %13, align 8, !tbaa !31
  ret void
}